; Function Attrs: nounwind sspstrong uwtable
define dso_local i64 @rb_iv_get(i64 noundef %0, ptr noundef nonnull %1) local_unnamed_addr #0 {
  %3 = tail call i64 @strlen(ptr noundef nonnull dereferenceable(1) %1) #29
  %4 = tail call nonnull ptr @rb_usascii_encoding() #27
  %5 = tail call i64 @rb_check_id_cstr(ptr noundef nonnull %1, i64 noundef %3, ptr noundef nonnull %4) #27
  %.not = icmp eq i64 %5, 0
  br i1 %.not, label %8, label %6

6:                                                ; preds = %2
  %7 = tail call i64 @rb_ivar_lookup(i64 noundef %0, i64 noundef %5, i64 noundef 4)
  br label %8

8:                                                ; preds = %2, %6
  %.0 = phi i64 [ %7, %6 ], [ 4, %2 ]
  ret i64 %.0
}